target datalayout = "e-m:e-p270:32:32-p271:32:32-p272:64:64-i64:64-i128:128-f80:128-n8:16:32:64-S128"
target triple = "x86_64-pc-linux-gnu"

%"struct.std::_Rb_tree_header" = type { %"struct.std::_Rb_tree_node_base", i64 }
%"struct.std::_Rb_tree_node_base" = type { i32, ptr, ptr, ptr }
%"class.std::__cxx11::basic_string" = type { %"struct.std::__cxx11::basic_string<char>::_Alloc_hider", i64, %union.anon }
%"struct.std::__cxx11::basic_string<char>::_Alloc_hider" = type { ptr }
%union.anon = type { i64, [8 x i8] }
%"struct.Yosys::AST::AstNode" = type <{ i32, i32, %"class.std::vector", %"class.std::map", %"class.std::__cxx11::basic_string", %"class.std::vector.6", i8, i8, i8, i8, i8, i8, i8, i8, i8, i8, i8, i8, i8, [3 x i8], i32, i32, i32, i32, double, i8, [7 x i8], %"class.std::vector.11", i32, [4 x i8], ptr, i8, i8, [6 x i8], %"class.std::__cxx11::basic_string", %"struct.Yosys::AST::AstSrcLocType", i8, i8, i8, i8, [4 x i8] }>
%"class.std::vector" = type { %"struct.std::_Vector_base" }
%"struct.std::_Vector_base" = type { %"struct.std::_Vector_base<Yosys::AST::AstNode *, std::allocator<Yosys::AST::AstNode *>>::_Vector_impl" }
%"struct.std::_Vector_base<Yosys::AST::AstNode *, std::allocator<Yosys::AST::AstNode *>>::_Vector_impl" = type { %"struct.std::_Vector_base<Yosys::AST::AstNode *, std::allocator<Yosys::AST::AstNode *>>::_Vector_impl_data" }
%"struct.std::_Vector_base<Yosys::AST::AstNode *, std::allocator<Yosys::AST::AstNode *>>::_Vector_impl_data" = type { ptr, ptr, ptr }
%"class.std::map" = type { %"class.std::_Rb_tree" }
%"class.std::_Rb_tree" = type { %"struct.std::_Rb_tree<Yosys::RTLIL::IdString, std::pair<const Yosys::RTLIL::IdString, Yosys::AST::AstNode *>, std::_Select1st<std::pair<const Yosys::RTLIL::IdString, Yosys::AST::AstNode *>>, std::less<Yosys::RTLIL::IdString>>::_Rb_tree_impl" }
%"struct.std::_Rb_tree<Yosys::RTLIL::IdString, std::pair<const Yosys::RTLIL::IdString, Yosys::AST::AstNode *>, std::_Select1st<std::pair<const Yosys::RTLIL::IdString, Yosys::AST::AstNode *>>, std::less<Yosys::RTLIL::IdString>>::_Rb_tree_impl" = type { [8 x i8], %"struct.std::_Rb_tree_header" }
%"class.std::vector.6" = type { %"struct.std::_Vector_base.7" }
%"struct.std::_Vector_base.7" = type { %"struct.std::_Vector_base<Yosys::RTLIL::State, std::allocator<Yosys::RTLIL::State>>::_Vector_impl" }
%"struct.std::_Vector_base<Yosys::RTLIL::State, std::allocator<Yosys::RTLIL::State>>::_Vector_impl" = type { %"struct.std::_Vector_base<Yosys::RTLIL::State, std::allocator<Yosys::RTLIL::State>>::_Vector_impl_data" }
%"struct.std::_Vector_base<Yosys::RTLIL::State, std::allocator<Yosys::RTLIL::State>>::_Vector_impl_data" = type { ptr, ptr, ptr }
%"class.std::vector.11" = type { %"struct.std::_Vector_base.12" }
%"struct.std::_Vector_base.12" = type { %"struct.std::_Vector_base<Yosys::AST::AstNode::dimension_t, std::allocator<Yosys::AST::AstNode::dimension_t>>::_Vector_impl" }
%"struct.std::_Vector_base<Yosys::AST::AstNode::dimension_t, std::allocator<Yosys::AST::AstNode::dimension_t>>::_Vector_impl" = type { %"struct.std::_Vector_base<Yosys::AST::AstNode::dimension_t, std::allocator<Yosys::AST::AstNode::dimension_t>>::_Vector_impl_data" }
%"struct.std::_Vector_base<Yosys::AST::AstNode::dimension_t, std::allocator<Yosys::AST::AstNode::dimension_t>>::_Vector_impl_data" = type { ptr, ptr, ptr }
%"struct.Yosys::AST::AstSrcLocType" = type { i32, i32, i32, i32 }
%"struct.std::pair.160" = type { ptr, ptr }
%"class.__gnu_cxx::__normal_iterator.162" = type { ptr }

; Function Attrs: mustprogress nounwind uwtable
define linkonce_odr noundef nonnull align 8 dereferenceable(8) ptr @_ZNK9__gnu_cxx17__normal_iteratorIPN5Yosys5RTLIL5StateESt6vectorIS3_SaIS3_EEE4baseEv(ptr noundef nonnull align 8 dereferenceable(8) %0) #6 comdat align 2 {
  %2 = alloca ptr, align 8
  store ptr %0, ptr %2, align 8, !tbaa !425
  %3 = load ptr, ptr %2, align 8
  %4 = getelementptr inbounds nuw %"class.__gnu_cxx::__normal_iterator.162", ptr %3, i32 0, i32 0
  ret ptr %4
}

; Function Attrs: mustprogress nounwind uwtable
define linkonce_odr void @_ZN9__gnu_cxx17__normal_iteratorIPN5Yosys5RTLIL5StateESt6vectorIS3_SaIS3_EEEC2ERKS4_(ptr noundef nonnull align 8 dereferenceable(8) %0, ptr noundef nonnull align 8 dereferenceable(8) %1) unnamed_addr #6 comdat align 2 {
  %3 = alloca ptr, align 8
  %4 = alloca ptr, align 8
  store ptr %0, ptr %3, align 8, !tbaa !425
  store ptr %1, ptr %4, align 8, !tbaa !805
  %5 = load ptr, ptr %3, align 8
  %6 = getelementptr inbounds nuw %"class.__gnu_cxx::__normal_iterator.162", ptr %5, i32 0, i32 0
  %7 = load ptr, ptr %4, align 8, !tbaa !805
  %8 = load ptr, ptr %7, align 8, !tbaa !182
  store ptr %8, ptr %6, align 8, !tbaa !427
  ret void
}

; Function Attrs: mustprogress nounwind uwtable
define linkonce_odr void @_ZNSt4pairIPN5Yosys3AST7AstNodeES3_EC2IRS3_S6_TnNSt9enable_ifIXaaclsr5_PCCPE22_MoveConstructiblePairIT_T0_EEclsr5_PCCPE30_ImplicitlyMoveConvertiblePairIS8_S9_EEEbE4typeELb1EEEOS8_OS9_(ptr noundef nonnull align 8 dereferenceable(16) %0, ptr noundef nonnull align 8 dereferenceable(8) %1, ptr noundef nonnull align 8 dereferenceable(8) %2) unnamed_addr #6 comdat align 2 {
  %4 = alloca ptr, align 8
  %5 = alloca ptr, align 8
  %6 = alloca ptr, align 8
  store ptr %0, ptr %4, align 8, !tbaa !532
  store ptr %1, ptr %5, align 8, !tbaa !62
  store ptr %2, ptr %6, align 8, !tbaa !62
  %7 = load ptr, ptr %4, align 8
  %8 = getelementptr inbounds nuw %"struct.std::pair.160", ptr %7, i32 0, i32 0
  %9 = load ptr, ptr %5, align 8, !tbaa !62
  %10 = load ptr, ptr %9, align 8, !tbaa !6
  store ptr %10, ptr %8, align 8, !tbaa !176
  %11 = getelementptr inbounds nuw %"struct.std::pair.160", ptr %7, i32 0, i32 1
  %12 = load ptr, ptr %6, align 8, !tbaa !62
  %13 = load ptr, ptr %12, align 8, !tbaa !6
  store ptr %13, ptr %11, align 8, !tbaa !293
  ret void
}

; Function Attrs: mustprogress nounwind uwtable
define linkonce_odr noundef nonnull align 8 dereferenceable(8) ptr @_ZN9__gnu_cxx17__normal_iteratorIPN5Yosys5RTLIL5StateESt6vectorIS3_SaIS3_EEEppEv(ptr noundef nonnull align 8 dereferenceable(8) %0) #6 comdat align 2 {
  %2 = alloca ptr, align 8
  store ptr %0, ptr %2, align 8, !tbaa !425
  %3 = load ptr, ptr %2, align 8
  %4 = getelementptr inbounds nuw %"class.__gnu_cxx::__normal_iterator.162", ptr %3, i32 0, i32 0
  %5 = load ptr, ptr %4, align 8, !tbaa !427
  %6 = getelementptr inbounds nuw i8, ptr %5, i32 1
  store ptr %6, ptr %4, align 8, !tbaa !427
  ret ptr %3
}

; Function Attrs: mustprogress nounwind uwtable
define linkonce_odr noundef nonnull align 1 dereferenceable(1) ptr @_ZNK9__gnu_cxx17__normal_iteratorIPN5Yosys5RTLIL5StateESt6vectorIS3_SaIS3_EEEdeEv(ptr noundef nonnull align 8 dereferenceable(8) %0) #6 comdat align 2 {
  %2 = alloca ptr, align 8
  store ptr %0, ptr %2, align 8, !tbaa !425
  %3 = load ptr, ptr %2, align 8
  %4 = getelementptr inbounds nuw %"class.__gnu_cxx::__normal_iterator.162", ptr %3, i32 0, i32 0
  %5 = load ptr, ptr %4, align 8, !tbaa !427
  ret ptr %5
}

; Function Attrs: inlinehint mustprogress nounwind uwtable
define linkonce_odr noundef zeroext i1 @_ZN9__gnu_cxxneIPN5Yosys5RTLIL5StateESt6vectorIS3_SaIS3_EEEEbRKNS_17__normal_iteratorIT_T0_EESD_(ptr noundef nonnull align 8 dereferenceable(8) %0, ptr noundef nonnull align 8 dereferenceable(8) %1) #7 comdat {
  %3 = alloca ptr, align 8
  %4 = alloca ptr, align 8
  store ptr %0, ptr %3, align 8, !tbaa !425
  store ptr %1, ptr %4, align 8, !tbaa !425
  %5 = load ptr, ptr %3, align 8, !tbaa !425
  %6 = call noundef nonnull align 8 dereferenceable(8) ptr @_ZNK9__gnu_cxx17__normal_iteratorIPN5Yosys5RTLIL5StateESt6vectorIS3_SaIS3_EEE4baseEv(ptr noundef nonnull align 8 dereferenceable(8) %5) #3
  %7 = load ptr, ptr %6, align 8, !tbaa !182
  %8 = load ptr, ptr %4, align 8, !tbaa !425
  %9 = call noundef nonnull align 8 dereferenceable(8) ptr @_ZNK9__gnu_cxx17__normal_iteratorIPN5Yosys5RTLIL5StateESt6vectorIS3_SaIS3_EEE4baseEv(ptr noundef nonnull align 8 dereferenceable(8) %8) #3
  %10 = load ptr, ptr %9, align 8, !tbaa !182
  %11 = icmp ne ptr %7, %10
  ret i1 %11
}

; Function Attrs: mustprogress nounwind uwtable
define linkonce_odr ptr @_ZNSt6vectorIN5Yosys5RTLIL5StateESaIS2_EE3endEv(ptr noundef nonnull align 8 dereferenceable(24) %0) #6 comdat align 2 {
  %2 = alloca %"class.__gnu_cxx::__normal_iterator.162", align 8
  %3 = alloca ptr, align 8
  store ptr %0, ptr %3, align 8, !tbaa !180
  %4 = load ptr, ptr %3, align 8
  %5 = getelementptr inbounds nuw %"struct.std::_Vector_base.7", ptr %4, i32 0, i32 0
  %6 = getelementptr inbounds nuw %"struct.std::_Vector_base<Yosys::RTLIL::State, std::allocator<Yosys::RTLIL::State>>::_Vector_impl_data", ptr %5, i32 0, i32 1
  call void @_ZN9__gnu_cxx17__normal_iteratorIPN5Yosys5RTLIL5StateESt6vectorIS3_SaIS3_EEEC2ERKS4_(ptr noundef nonnull align 8 dereferenceable(8) %2, ptr noundef nonnull align 8 dereferenceable(8) %6) #3
  %7 = getelementptr inbounds nuw %"class.__gnu_cxx::__normal_iterator.162", ptr %2, i32 0, i32 0
  %8 = load ptr, ptr %7, align 8
  ret ptr %8
}

; Function Attrs: mustprogress nounwind uwtable
define linkonce_odr ptr @_ZNSt6vectorIN5Yosys5RTLIL5StateESaIS2_EE5beginEv(ptr noundef nonnull align 8 dereferenceable(24) %0) #6 comdat align 2 {
  %2 = alloca %"class.__gnu_cxx::__normal_iterator.162", align 8
  %3 = alloca ptr, align 8
  store ptr %0, ptr %3, align 8, !tbaa !180
  %4 = load ptr, ptr %3, align 8
  %5 = getelementptr inbounds nuw %"struct.std::_Vector_base.7", ptr %4, i32 0, i32 0
  %6 = getelementptr inbounds nuw %"struct.std::_Vector_base<Yosys::RTLIL::State, std::allocator<Yosys::RTLIL::State>>::_Vector_impl_data", ptr %5, i32 0, i32 0
  call void @_ZN9__gnu_cxx17__normal_iteratorIPN5Yosys5RTLIL5StateESt6vectorIS3_SaIS3_EEEC2ERKS4_(ptr noundef nonnull align 8 dereferenceable(8) %2, ptr noundef nonnull align 8 dereferenceable(8) %6) #3
  %7 = getelementptr inbounds nuw %"class.__gnu_cxx::__normal_iterator.162", ptr %2, i32 0, i32 0
  %8 = load ptr, ptr %7, align 8
  ret ptr %8
}

; Function Attrs: mustprogress nounwind uwtable
define linkonce_odr void @_ZNSt4pairIPN5Yosys3AST7AstNodeES3_EC2IS3_S3_TnNSt9enable_ifIXsr6__and_ISt37__is_implicitly_default_constructibleIT_ES7_IT0_EEE5valueEbE4typeELb1EEEv(ptr noundef nonnull align 8 dereferenceable(16) %0) unnamed_addr #6 comdat align 2 {
  %2 = alloca ptr, align 8
  store ptr %0, ptr %2, align 8, !tbaa !532
  %3 = load ptr, ptr %2, align 8
  %4 = getelementptr inbounds nuw %"struct.std::pair.160", ptr %3, i32 0, i32 0
  store ptr null, ptr %4, align 8, !tbaa !176
  %5 = getelementptr inbounds nuw %"struct.std::pair.160", ptr %3, i32 0, i32 1
  store ptr null, ptr %5, align 8, !tbaa !293
  ret void
}

; Function Attrs: mustprogress nounwind uwtable
define linkonce_odr noundef nonnull align 8 dereferenceable(8) ptr @_ZNSt6vectorIPN5Yosys3AST7AstNodeESaIS3_EEixEm(ptr noundef nonnull align 8 dereferenceable(24) %0, i64 noundef %1) #6 comdat align 2 {
  %3 = alloca ptr, align 8
  %4 = alloca i64, align 8
  store ptr %0, ptr %3, align 8, !tbaa !52
  store i64 %1, ptr %4, align 8, !tbaa !67
  %5 = load ptr, ptr %3, align 8
  %6 = getelementptr inbounds nuw %"struct.std::_Vector_base", ptr %5, i32 0, i32 0
  %7 = getelementptr inbounds nuw %"struct.std::_Vector_base<Yosys::AST::AstNode *, std::allocator<Yosys::AST::AstNode *>>::_Vector_impl_data", ptr %6, i32 0, i32 0
  %8 = load ptr, ptr %7, align 8, !tbaa !66
  %9 = load i64, ptr %4, align 8, !tbaa !67
  %10 = getelementptr inbounds nuw ptr, ptr %8, i64 %9
  ret ptr %10
}

; Function Attrs: mustprogress uwtable
define { ptr, ptr } @_ZN5Yosys3AST7AstNode15get_tern_choiceEv(ptr noundef nonnull align 8 dereferenceable(284) %0) #4 align 2 {
  %2 = alloca %"struct.std::pair.160", align 8
  %3 = alloca ptr, align 8
  %4 = alloca i8, align 1
  %5 = alloca i8, align 1
  %6 = alloca ptr, align 8
  %7 = alloca %"class.__gnu_cxx::__normal_iterator.162", align 8
  %8 = alloca %"class.__gnu_cxx::__normal_iterator.162", align 8
  %9 = alloca ptr, align 8
  %10 = alloca ptr, align 8
  %11 = alloca ptr, align 8
  store ptr %0, ptr %3, align 8, !tbaa !6
  %12 = load ptr, ptr %3, align 8
  %13 = getelementptr inbounds nuw %"struct.Yosys::AST::AstNode", ptr %12, i32 0, i32 2
  %14 = call noundef nonnull align 8 dereferenceable(8) ptr @_ZNSt6vectorIPN5Yosys3AST7AstNodeESaIS3_EEixEm(ptr noundef nonnull align 8 dereferenceable(24) %13, i64 noundef 0) #3
  %15 = load ptr, ptr %14, align 8, !tbaa !6
  %16 = call noundef i32 @_ZNK5Yosys3AST7AstNode7isConstEv(ptr noundef nonnull align 8 dereferenceable(284) %15)
  %17 = icmp ne i32 %16, 0
  br i1 %17, label %19, label %18

18:                                               ; preds = %1
  call void @_ZNSt4pairIPN5Yosys3AST7AstNodeES3_EC2IS3_S3_TnNSt9enable_ifIXsr6__and_ISt37__is_implicitly_default_constructibleIT_ES7_IT0_EEE5valueEbE4typeELb1EEEv(ptr noundef nonnull align 8 dereferenceable(16) %2)
  br label %86

19:                                               ; preds = %1
  call void @llvm.lifetime.start.p0(i64 1, ptr %4) #3
  store i8 0, ptr %4, align 1, !tbaa !11
  call void @llvm.lifetime.start.p0(i64 1, ptr %5) #3
  store i8 0, ptr %5, align 1, !tbaa !11
  %20 = getelementptr inbounds nuw %"struct.Yosys::AST::AstNode", ptr %12, i32 0, i32 2
  %21 = call noundef nonnull align 8 dereferenceable(8) ptr @_ZNSt6vectorIPN5Yosys3AST7AstNodeESaIS3_EEixEm(ptr noundef nonnull align 8 dereferenceable(24) %20, i64 noundef 0) #3
  %22 = load ptr, ptr %21, align 8, !tbaa !6
  %23 = getelementptr inbounds nuw %"struct.Yosys::AST::AstNode", ptr %22, i32 0, i32 1
  %24 = load i32, ptr %23, align 4, !tbaa !51
  %25 = icmp eq i32 %24, 16
  br i1 %25, label %26, label %57

26:                                               ; preds = %19
  call void @llvm.lifetime.start.p0(i64 8, ptr %6) #3
  %27 = getelementptr inbounds nuw %"struct.Yosys::AST::AstNode", ptr %12, i32 0, i32 2
  %28 = call noundef nonnull align 8 dereferenceable(8) ptr @_ZNSt6vectorIPN5Yosys3AST7AstNodeESaIS3_EEixEm(ptr noundef nonnull align 8 dereferenceable(24) %27, i64 noundef 0) #3
  %29 = load ptr, ptr %28, align 8, !tbaa !6
  %30 = getelementptr inbounds nuw %"struct.Yosys::AST::AstNode", ptr %29, i32 0, i32 5
  store ptr %30, ptr %6, align 8, !tbaa !180
  call void @llvm.lifetime.start.p0(i64 8, ptr %7) #3
  %31 = load ptr, ptr %6, align 8, !tbaa !180
  %32 = call ptr @_ZNSt6vectorIN5Yosys5RTLIL5StateESaIS2_EE5beginEv(ptr noundef nonnull align 8 dereferenceable(24) %31) #3
  %33 = getelementptr inbounds nuw %"class.__gnu_cxx::__normal_iterator.162", ptr %7, i32 0, i32 0
  store ptr %32, ptr %33, align 8
  call void @llvm.lifetime.start.p0(i64 8, ptr %8) #3
  %34 = load ptr, ptr %6, align 8, !tbaa !180
  %35 = call ptr @_ZNSt6vectorIN5Yosys5RTLIL5StateESaIS2_EE3endEv(ptr noundef nonnull align 8 dereferenceable(24) %34) #3
  %36 = getelementptr inbounds nuw %"class.__gnu_cxx::__normal_iterator.162", ptr %8, i32 0, i32 0
  store ptr %35, ptr %36, align 8
  br label %37

37:                                               ; preds = %54, %26
  %38 = call noundef zeroext i1 @_ZN9__gnu_cxxneIPN5Yosys5RTLIL5StateESt6vectorIS3_SaIS3_EEEEbRKNS_17__normal_iteratorIT_T0_EESD_(ptr noundef nonnull align 8 dereferenceable(8) %7, ptr noundef nonnull align 8 dereferenceable(8) %8) #3
  br i1 %38, label %40, label %39

39:                                               ; preds = %37
  call void @llvm.lifetime.end.p0(i64 8, ptr %8) #3
  call void @llvm.lifetime.end.p0(i64 8, ptr %7) #3
  call void @llvm.lifetime.end.p0(i64 8, ptr %6) #3
  br label %56

40:                                               ; preds = %37
  call void @llvm.lifetime.start.p0(i64 8, ptr %9) #3
  %41 = call noundef nonnull align 1 dereferenceable(1) ptr @_ZNK9__gnu_cxx17__normal_iteratorIPN5Yosys5RTLIL5StateESt6vectorIS3_SaIS3_EEEdeEv(ptr noundef nonnull align 8 dereferenceable(8) %7) #3
  store ptr %41, ptr %9, align 8, !tbaa !182
  %42 = load ptr, ptr %9, align 8, !tbaa !182
  %43 = load i8, ptr %42, align 1, !tbaa !183
  %44 = zext i8 %43 to i32
  %45 = icmp eq i32 %44, 1
  br i1 %45, label %46, label %47

46:                                               ; preds = %40
  store i8 1, ptr %4, align 1, !tbaa !11
  br label %47

47:                                               ; preds = %46, %40
  %48 = load ptr, ptr %9, align 8, !tbaa !182
  %49 = load i8, ptr %48, align 1, !tbaa !183
  %50 = zext i8 %49 to i32
  %51 = icmp sgt i32 %50, 1
  br i1 %51, label %52, label %53

52:                                               ; preds = %47
  store i8 1, ptr %5, align 1, !tbaa !11
  br label %53

53:                                               ; preds = %52, %47
  call void @llvm.lifetime.end.p0(i64 8, ptr %9) #3
  br label %54

54:                                               ; preds = %53
  %55 = call noundef nonnull align 8 dereferenceable(8) ptr @_ZN9__gnu_cxx17__normal_iteratorIPN5Yosys5RTLIL5StateESt6vectorIS3_SaIS3_EEEppEv(ptr noundef nonnull align 8 dereferenceable(8) %7) #3
  br label %37

56:                                               ; preds = %39
  br label %64

57:                                               ; preds = %19
  %58 = getelementptr inbounds nuw %"struct.Yosys::AST::AstNode", ptr %12, i32 0, i32 2
  %59 = call noundef nonnull align 8 dereferenceable(8) ptr @_ZNSt6vectorIPN5Yosys3AST7AstNodeESaIS3_EEixEm(ptr noundef nonnull align 8 dereferenceable(24) %58, i64 noundef 0) #3
  %60 = load ptr, ptr %59, align 8, !tbaa !6
  %61 = call noundef double @_ZN5Yosys3AST7AstNode6asRealEb(ptr noundef nonnull align 8 dereferenceable(284) %60, i1 noundef zeroext true)
  %62 = fcmp une double %61, 0.000000e+00
  %63 = zext i1 %62 to i8
  store i8 %63, ptr %4, align 1, !tbaa !11
  br label %64

64:                                               ; preds = %57, %56
  call void @llvm.lifetime.start.p0(i64 8, ptr %10) #3
  store ptr null, ptr %10, align 8, !tbaa !6
  call void @llvm.lifetime.start.p0(i64 8, ptr %11) #3
  store ptr null, ptr %11, align 8, !tbaa !6
  %65 = load i8, ptr %4, align 1, !tbaa !11, !range !13, !noundef !14
  %66 = trunc i8 %65 to i1
  br i1 %66, label %67, label %74

67:                                               ; preds = %64
  %68 = getelementptr inbounds nuw %"struct.Yosys::AST::AstNode", ptr %12, i32 0, i32 2
  %69 = call noundef nonnull align 8 dereferenceable(8) ptr @_ZNSt6vectorIPN5Yosys3AST7AstNodeESaIS3_EEixEm(ptr noundef nonnull align 8 dereferenceable(24) %68, i64 noundef 1) #3
  %70 = load ptr, ptr %69, align 8, !tbaa !6
  store ptr %70, ptr %10, align 8, !tbaa !6
  %71 = getelementptr inbounds nuw %"struct.Yosys::AST::AstNode", ptr %12, i32 0, i32 2
  %72 = call noundef nonnull align 8 dereferenceable(8) ptr @_ZNSt6vectorIPN5Yosys3AST7AstNodeESaIS3_EEixEm(ptr noundef nonnull align 8 dereferenceable(24) %71, i64 noundef 2) #3
  %73 = load ptr, ptr %72, align 8, !tbaa !6
  store ptr %73, ptr %11, align 8, !tbaa !6
  br label %85

74:                                               ; preds = %64
  %75 = load i8, ptr %5, align 1, !tbaa !11, !range !13, !noundef !14
  %76 = trunc i8 %75 to i1
  br i1 %76, label %84, label %77

77:                                               ; preds = %74
  %78 = getelementptr inbounds nuw %"struct.Yosys::AST::AstNode", ptr %12, i32 0, i32 2
  %79 = call noundef nonnull align 8 dereferenceable(8) ptr @_ZNSt6vectorIPN5Yosys3AST7AstNodeESaIS3_EEixEm(ptr noundef nonnull align 8 dereferenceable(24) %78, i64 noundef 2) #3
  %80 = load ptr, ptr %79, align 8, !tbaa !6
  store ptr %80, ptr %10, align 8, !tbaa !6
  %81 = getelementptr inbounds nuw %"struct.Yosys::AST::AstNode", ptr %12, i32 0, i32 2
  %82 = call noundef nonnull align 8 dereferenceable(8) ptr @_ZNSt6vectorIPN5Yosys3AST7AstNodeESaIS3_EEixEm(ptr noundef nonnull align 8 dereferenceable(24) %81, i64 noundef 1) #3
  %83 = load ptr, ptr %82, align 8, !tbaa !6
  store ptr %83, ptr %11, align 8, !tbaa !6
  br label %84

84:                                               ; preds = %77, %74
  br label %85

85:                                               ; preds = %84, %67
  call void @_ZNSt4pairIPN5Yosys3AST7AstNodeES3_EC2IRS3_S6_TnNSt9enable_ifIXaaclsr5_PCCPE22_MoveConstructiblePairIT_T0_EEclsr5_PCCPE30_ImplicitlyMoveConvertiblePairIS8_S9_EEEbE4typeELb1EEEOS8_OS9_(ptr noundef nonnull align 8 dereferenceable(16) %2, ptr noundef nonnull align 8 dereferenceable(8) %10, ptr noundef nonnull align 8 dereferenceable(8) %11)
  call void @llvm.lifetime.end.p0(i64 8, ptr %11) #3
  call void @llvm.lifetime.end.p0(i64 8, ptr %10) #3
  call void @llvm.lifetime.end.p0(i64 1, ptr %5) #3
  call void @llvm.lifetime.end.p0(i64 1, ptr %4) #3
  br label %86

86:                                               ; preds = %85, %18
  %87 = load { ptr, ptr }, ptr %2, align 8
  ret { ptr, ptr } %87
}