; Function Attrs: mustprogress uwtable
define { ptr, ptr } @_ZN5Yosys3AST7AstNode15get_tern_choiceEv(ptr noundef nonnull readonly align 8 captures(none) dereferenceable(284) %0) local_unnamed_addr #3 align 2 {
  %2 = getelementptr inbounds nuw i8, ptr %0, i64 8
  %3 = load ptr, ptr %2, align 8, !tbaa !53
  %4 = load ptr, ptr %3, align 8, !tbaa !51
  %5 = tail call noundef i32 @_ZNK5Yosys3AST7AstNode7isConstEv(ptr noundef nonnull align 8 dereferenceable(284) %4)
  %.not = icmp eq i32 %5, 0
  br i1 %.not, label %36, label %6

6:                                                ; preds = %1
  %7 = load ptr, ptr %2, align 8, !tbaa !53
  %8 = load ptr, ptr %7, align 8, !tbaa !51
  %9 = getelementptr inbounds nuw i8, ptr %8, i64 4
  %10 = load i32, ptr %9, align 4, !tbaa !49
  %11 = icmp eq i32 %10, 16
  br i1 %11, label %12, label %21

12:                                               ; preds = %6
  %13 = getelementptr inbounds nuw i8, ptr %8, i64 112
  %14 = load ptr, ptr %13, align 8, !tbaa !248
  %15 = getelementptr inbounds nuw i8, ptr %8, i64 120
  %16 = load ptr, ptr %15, align 8, !tbaa !248
  %.not1819 = icmp eq ptr %14, %16
  br i1 %.not1819, label %.thread, label %.lr.ph

._crit_edge:                                      ; preds = %.lr.ph
  br i1 %spec.select, label %24, label %30

.lr.ph:                                           ; preds = %12, %.lr.ph
  %.022 = phi i1 [ %spec.select, %.lr.ph ], [ false, %12 ]
  %.0621 = phi i1 [ %.17, %.lr.ph ], [ false, %12 ]
  %.sroa.010.020 = phi ptr [ %20, %.lr.ph ], [ %14, %12 ]
  %17 = load i8, ptr %.sroa.010.020, align 1, !tbaa !249
  %18 = icmp eq i8 %17, 1
  %spec.select = select i1 %18, i1 true, i1 %.022
  %19 = icmp ugt i8 %17, 1
  %.17 = select i1 %19, i1 true, i1 %.0621
  %20 = getelementptr inbounds nuw i8, ptr %.sroa.010.020, i64 1
  %.not18 = icmp eq ptr %20, %16
  br i1 %.not18, label %._crit_edge, label %.lr.ph

21:                                               ; preds = %6
  %22 = tail call noundef double @_ZN5Yosys3AST7AstNode6asRealEb(ptr noundef nonnull align 8 dereferenceable(284) %8, i1 noundef zeroext true)
  %23 = fcmp une double %22, 0.000000e+00
  %.pre24 = load ptr, ptr %2, align 8, !tbaa !53
  br i1 %23, label %24, label %.thread

24:                                               ; preds = %._crit_edge, %21
  %25 = phi ptr [ %7, %._crit_edge ], [ %.pre24, %21 ]
  %26 = getelementptr inbounds nuw i8, ptr %25, i64 8
  %27 = load ptr, ptr %26, align 8, !tbaa !51
  %28 = getelementptr inbounds nuw i8, ptr %25, i64 16
  %29 = load ptr, ptr %28, align 8, !tbaa !51
  br label %36

30:                                               ; preds = %._crit_edge
  br i1 %.17, label %36, label %.thread

.thread:                                          ; preds = %12, %21, %30
  %31 = phi ptr [ %7, %30 ], [ %.pre24, %21 ], [ %7, %12 ]
  %32 = getelementptr inbounds nuw i8, ptr %31, i64 16
  %33 = load ptr, ptr %32, align 8, !tbaa !51
  %34 = getelementptr inbounds nuw i8, ptr %31, i64 8
  %35 = load ptr, ptr %34, align 8, !tbaa !51
  br label %36

36:                                               ; preds = %24, %.thread, %30, %1
  %.sroa.3.0 = phi ptr [ null, %1 ], [ %29, %24 ], [ null, %30 ], [ %35, %.thread ]
  %.sroa.013.0 = phi ptr [ null, %1 ], [ %27, %24 ], [ null, %30 ], [ %33, %.thread ]
  %.fca.0.insert = insertvalue { ptr, ptr } poison, ptr %.sroa.013.0, 0
  %.fca.1.insert = insertvalue { ptr, ptr } %.fca.0.insert, ptr %.sroa.3.0, 1
  ret { ptr, ptr } %.fca.1.insert
}